; ModuleID = '38/147.c'
source_filename = "38/147.c"
target datalayout = "e-m:e-p270:32:32-p271:32:32-p272:64:64-i64:64-f80:128-n8:16:32:64-S128"
target triple = "x86_64-pc-linux-gnu"

@.str = private unnamed_addr constant [3 x i8] c"%d\00", align 1
@.str.1 = private unnamed_addr constant [4 x i8] c"%lf\00", align 1
@.str.2 = private unnamed_addr constant [6 x i8] c"%.5f\0A\00", align 1

; Function Attrs: noinline nounwind uwtable
define dso_local i32 @main() #0 {
  %1 = alloca i32, align 4
  %2 = alloca [100 x [100 x double]], align 16
  %3 = alloca double, align 8
  %4 = alloca double, align 8
  %5 = alloca i32, align 4
  %6 = alloca i32, align 4
  %7 = alloca i32, align 4
  %8 = alloca i32, align 4
  store i32 0, i32* %1, align 4
  %9 = call i32 (i8*, ...) @__isoc99_scanf(i8* getelementptr inbounds ([3 x i8], [3 x i8]* @.str, i64 0, i64 0), i32* %5)
  store i32 0, i32* %7, align 4
  br label %10

10:                                               ; preds = %85, %0
  %11 = load i32, i32* %7, align 4
  %12 = load i32, i32* %5, align 4
  %13 = icmp slt i32 %11, %12
  br i1 %13, label %14, label %88

14:                                               ; preds = %10
  store double 0.000000e+00, double* %3, align 8
  store double 0.000000e+00, double* %4, align 8
  %15 = call i32 (i8*, ...) @__isoc99_scanf(i8* getelementptr inbounds ([3 x i8], [3 x i8]* @.str, i64 0, i64 0), i32* %6)
  store i32 0, i32* %8, align 4
  br label %16

16:                                               ; preds = %30, %14
  %17 = load i32, i32* %8, align 4
  %18 = load i32, i32* %6, align 4
  %19 = icmp slt i32 %17, %18
  br i1 %19, label %20, label %33

20:                                               ; preds = %16
  %21 = getelementptr inbounds [100 x [100 x double]], [100 x [100 x double]]* %2, i64 0, i64 0
  %22 = load i32, i32* %7, align 4
  %23 = sext i32 %22 to i64
  %24 = getelementptr inbounds [100 x double], [100 x double]* %21, i64 %23
  %25 = getelementptr inbounds [100 x double], [100 x double]* %24, i64 0, i64 0
  %26 = load i32, i32* %8, align 4
  %27 = sext i32 %26 to i64
  %28 = getelementptr inbounds double, double* %25, i64 %27
  %29 = call i32 (i8*, ...) @__isoc99_scanf(i8* getelementptr inbounds ([4 x i8], [4 x i8]* @.str.1, i64 0, i64 0), double* %28)
  br label %30

30:                                               ; preds = %20
  %31 = load i32, i32* %8, align 4
  %32 = add nsw i32 %31, 1
  store i32 %32, i32* %8, align 4
  br label %16

33:                                               ; preds = %16
  store i32 0, i32* %8, align 4
  br label %34

34:                                               ; preds = %48, %33
  %35 = load i32, i32* %8, align 4
  %36 = load i32, i32* %6, align 4
  %37 = icmp slt i32 %35, %36
  br i1 %37, label %38, label %51

38:                                               ; preds = %34
  %39 = load double, double* %3, align 8
  %40 = load i32, i32* %7, align 4
  %41 = sext i32 %40 to i64
  %42 = getelementptr inbounds [100 x [100 x double]], [100 x [100 x double]]* %2, i64 0, i64 %41
  %43 = load i32, i32* %8, align 4
  %44 = sext i32 %43 to i64
  %45 = getelementptr inbounds [100 x double], [100 x double]* %42, i64 0, i64 %44
  %46 = load double, double* %45, align 8
  %47 = fadd double %39, %46
  store double %47, double* %3, align 8
  br label %48

48:                                               ; preds = %38
  %49 = load i32, i32* %8, align 4
  %50 = add nsw i32 %49, 1
  store i32 %50, i32* %8, align 4
  br label %34

51:                                               ; preds = %34
  %52 = load double, double* %3, align 8
  %53 = load i32, i32* %6, align 4
  %54 = sitofp i32 %53 to double
  %55 = fdiv double %52, %54
  store double %55, double* %3, align 8
  store i32 0, i32* %8, align 4
  br label %56

56:                                               ; preds = %73, %51
  %57 = load i32, i32* %8, align 4
  %58 = load i32, i32* %6, align 4
  %59 = icmp slt i32 %57, %58
  br i1 %59, label %60, label %76

60:                                               ; preds = %56
  %61 = load double, double* %4, align 8
  %62 = load i32, i32* %7, align 4
  %63 = sext i32 %62 to i64
  %64 = getelementptr inbounds [100 x [100 x double]], [100 x [100 x double]]* %2, i64 0, i64 %63
  %65 = load i32, i32* %8, align 4
  %66 = sext i32 %65 to i64
  %67 = getelementptr inbounds [100 x double], [100 x double]* %64, i64 0, i64 %66
  %68 = load double, double* %67, align 8
  %69 = load double, double* %3, align 8
  %70 = fsub double %68, %69
  %71 = call double @pow(double %70, double 2.000000e+00) #3
  %72 = fadd double %61, %71
  store double %72, double* %4, align 8
  br label %73

73:                                               ; preds = %60
  %74 = load i32, i32* %8, align 4
  %75 = add nsw i32 %74, 1
  store i32 %75, i32* %8, align 4
  br label %56

76:                                               ; preds = %56
  %77 = load double, double* %4, align 8
  %78 = load i32, i32* %6, align 4
  %79 = sitofp i32 %78 to double
  %80 = fdiv double %77, %79
  store double %80, double* %4, align 8
  %81 = load double, double* %4, align 8
  %82 = call double @pow(double %81, double 5.000000e-01) #3
  store double %82, double* %4, align 8
  %83 = load double, double* %4, align 8
  %84 = call i32 (i8*, ...) @printf(i8* getelementptr inbounds ([6 x i8], [6 x i8]* @.str.2, i64 0, i64 0), double %83)
  br label %85

85:                                               ; preds = %76
  %86 = load i32, i32* %7, align 4
  %87 = add nsw i32 %86, 1
  store i32 %87, i32* %7, align 4
  br label %10

88:                                               ; preds = %10
  ret i32 0
}

declare dso_local i32 @__isoc99_scanf(i8*, ...) #1

; Function Attrs: nounwind
declare dso_local double @pow(double, double) #2

declare dso_local i32 @printf(i8*, ...) #1


!llvm.module.flags = !{!0}
!llvm.ident = !{!1}

!0 = !{i32 1, !"wchar_size", i32 4}
!1 = !{!"clang version 10.0.0-4ubuntu1 "}
